target datalayout = "e-m:e-p270:32:32-p271:32:32-p272:64:64-i64:64-i128:128-f80:128-n8:16:32:64-S128"
target triple = "x86_64-pc-linux-gnu"

%struct.gmx_ana_pos_t = type <{ ptr, ptr, ptr, %struct.gmx_ana_indexmap_t, i32, [4 x i8] }>
%struct.gmx_ana_indexmap_t = type { i32, ptr, ptr, %struct.t_blocka, ptr, %struct.t_blocka, i8 }
%struct.t_blocka = type { i32, ptr, i32, ptr, i32, i32 }

; Function Attrs: mustprogress nounwind uwtable
define linkonce_odr noundef float @_Zli5_reale(x86_fp80 noundef %0) #2 comdat {
  %2 = alloca x86_fp80, align 16
  store x86_fp80 %0, ptr %2, align 16
  %3 = load x86_fp80, ptr %2, align 16
  %4 = fptrunc x86_fp80 %3 to float
  ret float %4
}

; Function Attrs: mustprogress uwtable
define internal void @_ZL10clear_rvecPf(ptr noundef %0) #0 {
  %2 = alloca ptr, align 8
  store ptr %0, ptr %2, align 8
  %3 = call noundef float @_Zli5_reale(x86_fp80 noundef 0xK00000000000000000000)
  %4 = load ptr, ptr %2, align 8
  %5 = getelementptr inbounds float, ptr %4, i64 0
  store float %3, ptr %5, align 4
  %6 = call noundef float @_Zli5_reale(x86_fp80 noundef 0xK00000000000000000000)
  %7 = load ptr, ptr %2, align 8
  %8 = getelementptr inbounds float, ptr %7, i64 1
  store float %6, ptr %8, align 4
  %9 = call noundef float @_Zli5_reale(x86_fp80 noundef 0xK00000000000000000000)
  %10 = load ptr, ptr %2, align 8
  %11 = getelementptr inbounds float, ptr %10, i64 2
  store float %9, ptr %11, align 4
  ret void
}

; Function Attrs: mustprogress nounwind uwtable
define internal void @_ZL9copy_rvecPKfPf(ptr noundef %0, ptr noundef %1) #2 {
  %3 = alloca ptr, align 8
  %4 = alloca ptr, align 8
  store ptr %0, ptr %3, align 8
  store ptr %1, ptr %4, align 8
  %5 = load ptr, ptr %3, align 8
  %6 = getelementptr inbounds float, ptr %5, i64 0
  %7 = load float, ptr %6, align 4
  %8 = load ptr, ptr %4, align 8
  %9 = getelementptr inbounds float, ptr %8, i64 0
  store float %7, ptr %9, align 4
  %10 = load ptr, ptr %3, align 8
  %11 = getelementptr inbounds float, ptr %10, i64 1
  %12 = load float, ptr %11, align 4
  %13 = load ptr, ptr %4, align 8
  %14 = getelementptr inbounds float, ptr %13, i64 1
  store float %12, ptr %14, align 4
  %15 = load ptr, ptr %3, align 8
  %16 = getelementptr inbounds float, ptr %15, i64 2
  %17 = load float, ptr %16, align 4
  %18 = load ptr, ptr %4, align 8
  %19 = getelementptr inbounds float, ptr %18, i64 2
  store float %17, ptr %19, align 4
  ret void
}

; Function Attrs: mustprogress nounwind uwtable
define linkonce_odr noundef i32 @_ZNK13gmx_ana_pos_t5countEv(ptr noundef nonnull align 8 dereferenceable(148) %0) #2 comdat align 2 {
  %2 = alloca ptr, align 8
  store ptr %0, ptr %2, align 8
  %3 = load ptr, ptr %2, align 8
  %4 = getelementptr inbounds %struct.gmx_ana_pos_t, ptr %3, i32 0, i32 3
  %5 = getelementptr inbounds %struct.gmx_ana_indexmap_t, ptr %4, i32 0, i32 3
  %6 = getelementptr inbounds %struct.t_blocka, ptr %5, i32 0, i32 0
  %7 = load i32, ptr %6, align 8
  ret i32 %7
}

; Function Attrs: mustprogress uwtable
define void @_Z23gmx_ana_pos_append_initP13gmx_ana_pos_tS0_i(ptr noundef %0, ptr noundef %1, i32 noundef %2) #0 {
  %4 = alloca ptr, align 8
  %5 = alloca ptr, align 8
  %6 = alloca i32, align 4
  %7 = alloca i32, align 4
  %8 = alloca i32, align 4
  store ptr %0, ptr %4, align 8
  store ptr %1, ptr %5, align 8
  store i32 %2, ptr %6, align 4
  %9 = load ptr, ptr %4, align 8
  %10 = call noundef i32 @_ZNK13gmx_ana_pos_t5countEv(ptr noundef nonnull align 8 dereferenceable(148) %9)
  store i32 %10, ptr %7, align 4
  %11 = load ptr, ptr %5, align 8
  %12 = getelementptr inbounds %struct.gmx_ana_pos_t, ptr %11, i32 0, i32 0
  %13 = load ptr, ptr %12, align 8
  %14 = load i32, ptr %6, align 4
  %15 = sext i32 %14 to i64
  %16 = getelementptr inbounds [3 x float], ptr %13, i64 %15
  %17 = getelementptr inbounds [3 x float], ptr %16, i64 0, i64 0
  %18 = load ptr, ptr %4, align 8
  %19 = getelementptr inbounds %struct.gmx_ana_pos_t, ptr %18, i32 0, i32 0
  %20 = load ptr, ptr %19, align 8
  %21 = load i32, ptr %7, align 4
  %22 = sext i32 %21 to i64
  %23 = getelementptr inbounds [3 x float], ptr %20, i64 %22
  %24 = getelementptr inbounds [3 x float], ptr %23, i64 0, i64 0
  call void @_ZL9copy_rvecPKfPf(ptr noundef %17, ptr noundef %24)
  %25 = load ptr, ptr %4, align 8
  %26 = getelementptr inbounds %struct.gmx_ana_pos_t, ptr %25, i32 0, i32 1
  %27 = load ptr, ptr %26, align 8
  %28 = icmp ne ptr %27, null
  br i1 %28, label %29, label %58

29:                                               ; preds = %3
  %30 = load ptr, ptr %5, align 8
  %31 = getelementptr inbounds %struct.gmx_ana_pos_t, ptr %30, i32 0, i32 1
  %32 = load ptr, ptr %31, align 8
  %33 = icmp ne ptr %32, null
  br i1 %33, label %34, label %49

34:                                               ; preds = %29
  %35 = load ptr, ptr %5, align 8
  %36 = getelementptr inbounds %struct.gmx_ana_pos_t, ptr %35, i32 0, i32 1
  %37 = load ptr, ptr %36, align 8
  %38 = load i32, ptr %6, align 4
  %39 = sext i32 %38 to i64
  %40 = getelementptr inbounds [3 x float], ptr %37, i64 %39
  %41 = getelementptr inbounds [3 x float], ptr %40, i64 0, i64 0
  %42 = load ptr, ptr %4, align 8
  %43 = getelementptr inbounds %struct.gmx_ana_pos_t, ptr %42, i32 0, i32 1
  %44 = load ptr, ptr %43, align 8
  %45 = load i32, ptr %7, align 4
  %46 = sext i32 %45 to i64
  %47 = getelementptr inbounds [3 x float], ptr %44, i64 %46
  %48 = getelementptr inbounds [3 x float], ptr %47, i64 0, i64 0
  call void @_ZL9copy_rvecPKfPf(ptr noundef %41, ptr noundef %48)
  br label %57

49:                                               ; preds = %29
  %50 = load ptr, ptr %4, align 8
  %51 = getelementptr inbounds %struct.gmx_ana_pos_t, ptr %50, i32 0, i32 1
  %52 = load ptr, ptr %51, align 8
  %53 = load i32, ptr %7, align 4
  %54 = sext i32 %53 to i64
  %55 = getelementptr inbounds [3 x float], ptr %52, i64 %54
  %56 = getelementptr inbounds [3 x float], ptr %55, i64 0, i64 0
  call void @_ZL10clear_rvecPf(ptr noundef %56)
  br label %57

57:                                               ; preds = %49, %34
  br label %58

58:                                               ; preds = %57, %3
  %59 = load ptr, ptr %4, align 8
  %60 = getelementptr inbounds %struct.gmx_ana_pos_t, ptr %59, i32 0, i32 2
  %61 = load ptr, ptr %60, align 8
  %62 = icmp ne ptr %61, null
  br i1 %62, label %63, label %92

63:                                               ; preds = %58
  %64 = load ptr, ptr %5, align 8
  %65 = getelementptr inbounds %struct.gmx_ana_pos_t, ptr %64, i32 0, i32 2
  %66 = load ptr, ptr %65, align 8
  %67 = icmp ne ptr %66, null
  br i1 %67, label %68, label %83

68:                                               ; preds = %63
  %69 = load ptr, ptr %5, align 8
  %70 = getelementptr inbounds %struct.gmx_ana_pos_t, ptr %69, i32 0, i32 2
  %71 = load ptr, ptr %70, align 8
  %72 = load i32, ptr %6, align 4
  %73 = sext i32 %72 to i64
  %74 = getelementptr inbounds [3 x float], ptr %71, i64 %73
  %75 = getelementptr inbounds [3 x float], ptr %74, i64 0, i64 0
  %76 = load ptr, ptr %4, align 8
  %77 = getelementptr inbounds %struct.gmx_ana_pos_t, ptr %76, i32 0, i32 2
  %78 = load ptr, ptr %77, align 8
  %79 = load i32, ptr %7, align 4
  %80 = sext i32 %79 to i64
  %81 = getelementptr inbounds [3 x float], ptr %78, i64 %80
  %82 = getelementptr inbounds [3 x float], ptr %81, i64 0, i64 0
  call void @_ZL9copy_rvecPKfPf(ptr noundef %75, ptr noundef %82)
  br label %91

83:                                               ; preds = %63
  %84 = load ptr, ptr %4, align 8
  %85 = getelementptr inbounds %struct.gmx_ana_pos_t, ptr %84, i32 0, i32 2
  %86 = load ptr, ptr %85, align 8
  %87 = load i32, ptr %7, align 4
  %88 = sext i32 %87 to i64
  %89 = getelementptr inbounds [3 x float], ptr %86, i64 %88
  %90 = getelementptr inbounds [3 x float], ptr %89, i64 0, i64 0
  call void @_ZL10clear_rvecPf(ptr noundef %90)
  br label %91

91:                                               ; preds = %83, %68
  br label %92

92:                                               ; preds = %91, %58
  %93 = load i32, ptr %7, align 4
  %94 = load ptr, ptr %4, align 8
  %95 = getelementptr inbounds %struct.gmx_ana_pos_t, ptr %94, i32 0, i32 3
  %96 = getelementptr inbounds %struct.gmx_ana_indexmap_t, ptr %95, i32 0, i32 1
  %97 = load ptr, ptr %96, align 8
  %98 = load i32, ptr %7, align 4
  %99 = sext i32 %98 to i64
  %100 = getelementptr inbounds i32, ptr %97, i64 %99
  store i32 %93, ptr %100, align 4
  %101 = load ptr, ptr %5, align 8
  %102 = getelementptr inbounds %struct.gmx_ana_pos_t, ptr %101, i32 0, i32 3
  %103 = getelementptr inbounds %struct.gmx_ana_indexmap_t, ptr %102, i32 0, i32 2
  %104 = load ptr, ptr %103, align 8
  %105 = load i32, ptr %6, align 4
  %106 = sext i32 %105 to i64
  %107 = getelementptr inbounds i32, ptr %104, i64 %106
  %108 = load i32, ptr %107, align 4
  %109 = load ptr, ptr %4, align 8
  %110 = getelementptr inbounds %struct.gmx_ana_pos_t, ptr %109, i32 0, i32 3
  %111 = getelementptr inbounds %struct.gmx_ana_indexmap_t, ptr %110, i32 0, i32 2
  %112 = load ptr, ptr %111, align 8
  %113 = load i32, ptr %7, align 4
  %114 = sext i32 %113 to i64
  %115 = getelementptr inbounds i32, ptr %112, i64 %114
  store i32 %108, ptr %115, align 4
  %116 = load ptr, ptr %5, align 8
  %117 = getelementptr inbounds %struct.gmx_ana_pos_t, ptr %116, i32 0, i32 3
  %118 = getelementptr inbounds %struct.gmx_ana_indexmap_t, ptr %117, i32 0, i32 4
  %119 = load ptr, ptr %118, align 8
  %120 = load i32, ptr %6, align 4
  %121 = sext i32 %120 to i64
  %122 = getelementptr inbounds i32, ptr %119, i64 %121
  %123 = load i32, ptr %122, align 4
  %124 = load ptr, ptr %4, align 8
  %125 = getelementptr inbounds %struct.gmx_ana_pos_t, ptr %124, i32 0, i32 3
  %126 = getelementptr inbounds %struct.gmx_ana_indexmap_t, ptr %125, i32 0, i32 4
  %127 = load ptr, ptr %126, align 8
  %128 = load i32, ptr %7, align 4
  %129 = sext i32 %128 to i64
  %130 = getelementptr inbounds i32, ptr %127, i64 %129
  store i32 %123, ptr %130, align 4
  %131 = load ptr, ptr %5, align 8
  %132 = getelementptr inbounds %struct.gmx_ana_pos_t, ptr %131, i32 0, i32 3
  %133 = getelementptr inbounds %struct.gmx_ana_indexmap_t, ptr %132, i32 0, i32 3
  %134 = getelementptr inbounds %struct.t_blocka, ptr %133, i32 0, i32 1
  %135 = load ptr, ptr %134, align 8
  %136 = load i32, ptr %6, align 4
  %137 = sext i32 %136 to i64
  %138 = getelementptr inbounds i32, ptr %135, i64 %137
  %139 = load i32, ptr %138, align 4
  store i32 %139, ptr %8, align 4
  br label %140

140:                                              ; preds = %198, %92
  %141 = load i32, ptr %8, align 4
  %142 = load ptr, ptr %5, align 8
  %143 = getelementptr inbounds %struct.gmx_ana_pos_t, ptr %142, i32 0, i32 3
  %144 = getelementptr inbounds %struct.gmx_ana_indexmap_t, ptr %143, i32 0, i32 3
  %145 = getelementptr inbounds %struct.t_blocka, ptr %144, i32 0, i32 1
  %146 = load ptr, ptr %145, align 8
  %147 = load i32, ptr %6, align 4
  %148 = add nsw i32 %147, 1
  %149 = sext i32 %148 to i64
  %150 = getelementptr inbounds i32, ptr %146, i64 %149
  %151 = load i32, ptr %150, align 4
  %152 = icmp slt i32 %141, %151
  br i1 %152, label %153, label %201

153:                                              ; preds = %140
  %154 = load ptr, ptr %5, align 8
  %155 = getelementptr inbounds %struct.gmx_ana_pos_t, ptr %154, i32 0, i32 3
  %156 = getelementptr inbounds %struct.gmx_ana_indexmap_t, ptr %155, i32 0, i32 3
  %157 = getelementptr inbounds %struct.t_blocka, ptr %156, i32 0, i32 3
  %158 = load ptr, ptr %157, align 8
  %159 = load i32, ptr %8, align 4
  %160 = sext i32 %159 to i64
  %161 = getelementptr inbounds i32, ptr %158, i64 %160
  %162 = load i32, ptr %161, align 4
  %163 = load ptr, ptr %4, align 8
  %164 = getelementptr inbounds %struct.gmx_ana_pos_t, ptr %163, i32 0, i32 3
  %165 = getelementptr inbounds %struct.gmx_ana_indexmap_t, ptr %164, i32 0, i32 3
  %166 = getelementptr inbounds %struct.t_blocka, ptr %165, i32 0, i32 3
  %167 = load ptr, ptr %166, align 8
  %168 = load ptr, ptr %4, align 8
  %169 = getelementptr inbounds %struct.gmx_ana_pos_t, ptr %168, i32 0, i32 3
  %170 = getelementptr inbounds %struct.gmx_ana_indexmap_t, ptr %169, i32 0, i32 3
  %171 = getelementptr inbounds %struct.t_blocka, ptr %170, i32 0, i32 2
  %172 = load i32, ptr %171, align 8
  %173 = add nsw i32 %172, 1
  store i32 %173, ptr %171, align 8
  %174 = sext i32 %172 to i64
  %175 = getelementptr inbounds i32, ptr %167, i64 %174
  store i32 %162, ptr %175, align 4
  %176 = load ptr, ptr %5, align 8
  %177 = getelementptr inbounds %struct.gmx_ana_pos_t, ptr %176, i32 0, i32 3
  %178 = getelementptr inbounds %struct.gmx_ana_indexmap_t, ptr %177, i32 0, i32 5
  %179 = getelementptr inbounds %struct.t_blocka, ptr %178, i32 0, i32 3
  %180 = load ptr, ptr %179, align 8
  %181 = load i32, ptr %8, align 4
  %182 = sext i32 %181 to i64
  %183 = getelementptr inbounds i32, ptr %180, i64 %182
  %184 = load i32, ptr %183, align 4
  %185 = load ptr, ptr %4, align 8
  %186 = getelementptr inbounds %struct.gmx_ana_pos_t, ptr %185, i32 0, i32 3
  %187 = getelementptr inbounds %struct.gmx_ana_indexmap_t, ptr %186, i32 0, i32 5
  %188 = getelementptr inbounds %struct.t_blocka, ptr %187, i32 0, i32 3
  %189 = load ptr, ptr %188, align 8
  %190 = load ptr, ptr %4, align 8
  %191 = getelementptr inbounds %struct.gmx_ana_pos_t, ptr %190, i32 0, i32 3
  %192 = getelementptr inbounds %struct.gmx_ana_indexmap_t, ptr %191, i32 0, i32 5
  %193 = getelementptr inbounds %struct.t_blocka, ptr %192, i32 0, i32 2
  %194 = load i32, ptr %193, align 8
  %195 = add nsw i32 %194, 1
  store i32 %195, ptr %193, align 8
  %196 = sext i32 %194 to i64
  %197 = getelementptr inbounds i32, ptr %189, i64 %196
  store i32 %184, ptr %197, align 4
  br label %198

198:                                              ; preds = %153
  %199 = load i32, ptr %8, align 4
  %200 = add nsw i32 %199, 1
  store i32 %200, ptr %8, align 4
  br label %140, !llvm.loop !5

201:                                              ; preds = %140
  %202 = load ptr, ptr %4, align 8
  %203 = getelementptr inbounds %struct.gmx_ana_pos_t, ptr %202, i32 0, i32 3
  %204 = getelementptr inbounds %struct.gmx_ana_indexmap_t, ptr %203, i32 0, i32 3
  %205 = getelementptr inbounds %struct.t_blocka, ptr %204, i32 0, i32 2
  %206 = load i32, ptr %205, align 8
  %207 = load ptr, ptr %4, align 8
  %208 = getelementptr inbounds %struct.gmx_ana_pos_t, ptr %207, i32 0, i32 3
  %209 = getelementptr inbounds %struct.gmx_ana_indexmap_t, ptr %208, i32 0, i32 3
  %210 = getelementptr inbounds %struct.t_blocka, ptr %209, i32 0, i32 1
  %211 = load ptr, ptr %210, align 8
  %212 = load i32, ptr %7, align 4
  %213 = add nsw i32 %212, 1
  %214 = sext i32 %213 to i64
  %215 = getelementptr inbounds i32, ptr %211, i64 %214
  store i32 %206, ptr %215, align 4
  %216 = load ptr, ptr %4, align 8
  %217 = getelementptr inbounds %struct.gmx_ana_pos_t, ptr %216, i32 0, i32 3
  %218 = getelementptr inbounds %struct.gmx_ana_indexmap_t, ptr %217, i32 0, i32 3
  %219 = getelementptr inbounds %struct.t_blocka, ptr %218, i32 0, i32 2
  %220 = load i32, ptr %219, align 8
  %221 = load ptr, ptr %4, align 8
  %222 = getelementptr inbounds %struct.gmx_ana_pos_t, ptr %221, i32 0, i32 3
  %223 = getelementptr inbounds %struct.gmx_ana_indexmap_t, ptr %222, i32 0, i32 5
  %224 = getelementptr inbounds %struct.t_blocka, ptr %223, i32 0, i32 1
  %225 = load ptr, ptr %224, align 8
  %226 = load i32, ptr %7, align 4
  %227 = add nsw i32 %226, 1
  %228 = sext i32 %227 to i64
  %229 = getelementptr inbounds i32, ptr %225, i64 %228
  store i32 %220, ptr %229, align 4
  %230 = load ptr, ptr %4, align 8
  %231 = getelementptr inbounds %struct.gmx_ana_pos_t, ptr %230, i32 0, i32 3
  %232 = getelementptr inbounds %struct.gmx_ana_indexmap_t, ptr %231, i32 0, i32 3
  %233 = getelementptr inbounds %struct.t_blocka, ptr %232, i32 0, i32 0
  %234 = load i32, ptr %233, align 8
  %235 = add nsw i32 %234, 1
  store i32 %235, ptr %233, align 8
  %236 = load ptr, ptr %4, align 8
  %237 = getelementptr inbounds %struct.gmx_ana_pos_t, ptr %236, i32 0, i32 3
  %238 = getelementptr inbounds %struct.gmx_ana_indexmap_t, ptr %237, i32 0, i32 5
  %239 = getelementptr inbounds %struct.t_blocka, ptr %238, i32 0, i32 0
  %240 = load i32, ptr %239, align 8
  %241 = add nsw i32 %240, 1
  store i32 %241, ptr %239, align 8
  ret void
}