; Function Attrs: mustprogress nofree norecurse nosync nounwind memory(readwrite, inaccessiblemem: none) uwtable
define void @_Z23gmx_ana_pos_append_initP13gmx_ana_pos_tS0_i(ptr nocapture noundef %0, ptr nocapture noundef readonly %1, i32 noundef %2) local_unnamed_addr #8 {
  %4 = getelementptr inbounds i8, ptr %0, i64 48
  %5 = load i32, ptr %4, align 8
  %6 = load ptr, ptr %1, align 8
  %7 = sext i32 %2 to i64
  %8 = getelementptr inbounds [3 x float], ptr %6, i64 %7
  %9 = load ptr, ptr %0, align 8
  %10 = sext i32 %5 to i64
  %11 = getelementptr inbounds [3 x float], ptr %9, i64 %10
  %12 = load float, ptr %8, align 4
  store float %12, ptr %11, align 4
  %13 = getelementptr inbounds i8, ptr %8, i64 4
  %14 = load float, ptr %13, align 4
  %15 = getelementptr inbounds i8, ptr %11, i64 4
  store float %14, ptr %15, align 4
  %16 = getelementptr inbounds i8, ptr %8, i64 8
  %17 = load float, ptr %16, align 4
  %18 = getelementptr inbounds i8, ptr %11, i64 8
  store float %17, ptr %18, align 4
  %19 = getelementptr inbounds i8, ptr %0, i64 8
  %20 = load ptr, ptr %19, align 8
  %.not = icmp eq ptr %20, null
  br i1 %.not, label %36, label %21

21:                                               ; preds = %3
  %22 = getelementptr inbounds i8, ptr %1, i64 8
  %23 = load ptr, ptr %22, align 8
  %.not57 = icmp eq ptr %23, null
  br i1 %.not57, label %33, label %24

24:                                               ; preds = %21
  %25 = getelementptr inbounds [3 x float], ptr %23, i64 %7
  %26 = getelementptr inbounds [3 x float], ptr %20, i64 %10
  %27 = load float, ptr %25, align 4
  store float %27, ptr %26, align 4
  %28 = getelementptr inbounds i8, ptr %25, i64 4
  %29 = load float, ptr %28, align 4
  %30 = getelementptr inbounds i8, ptr %26, i64 4
  store float %29, ptr %30, align 4
  %31 = getelementptr inbounds i8, ptr %25, i64 8
  %32 = load float, ptr %31, align 4
  br label %.sink.split

33:                                               ; preds = %21
  %34 = getelementptr inbounds [3 x float], ptr %20, i64 %10
  store <2 x float> zeroinitializer, ptr %34, align 4
  br label %.sink.split

.sink.split:                                      ; preds = %33, %24
  %.sink = phi float [ %32, %24 ], [ 0.000000e+00, %33 ]
  %35 = getelementptr inbounds [3 x float], ptr %20, i64 %10, i64 2
  store float %.sink, ptr %35, align 4
  br label %36

36:                                               ; preds = %.sink.split, %3
  %37 = getelementptr inbounds i8, ptr %0, i64 16
  %38 = load ptr, ptr %37, align 8
  %.not58 = icmp eq ptr %38, null
  br i1 %.not58, label %54, label %39

39:                                               ; preds = %36
  %40 = getelementptr inbounds i8, ptr %1, i64 16
  %41 = load ptr, ptr %40, align 8
  %.not59 = icmp eq ptr %41, null
  br i1 %.not59, label %51, label %42

42:                                               ; preds = %39
  %43 = getelementptr inbounds [3 x float], ptr %41, i64 %7
  %44 = getelementptr inbounds [3 x float], ptr %38, i64 %10
  %45 = load float, ptr %43, align 4
  store float %45, ptr %44, align 4
  %46 = getelementptr inbounds i8, ptr %43, i64 4
  %47 = load float, ptr %46, align 4
  %48 = getelementptr inbounds i8, ptr %44, i64 4
  store float %47, ptr %48, align 4
  %49 = getelementptr inbounds i8, ptr %43, i64 8
  %50 = load float, ptr %49, align 4
  br label %.sink.split64

51:                                               ; preds = %39
  %52 = getelementptr inbounds [3 x float], ptr %38, i64 %10
  store <2 x float> zeroinitializer, ptr %52, align 4
  br label %.sink.split64

.sink.split64:                                    ; preds = %51, %42
  %.sink65 = phi float [ %50, %42 ], [ 0.000000e+00, %51 ]
  %53 = getelementptr inbounds [3 x float], ptr %38, i64 %10, i64 2
  store float %.sink65, ptr %53, align 4
  br label %54

54:                                               ; preds = %.sink.split64, %36
  %55 = getelementptr inbounds i8, ptr %0, i64 32
  %56 = load ptr, ptr %55, align 8
  %57 = getelementptr inbounds i32, ptr %56, i64 %10
  store i32 %5, ptr %57, align 4
  %58 = getelementptr inbounds i8, ptr %1, i64 40
  %59 = load ptr, ptr %58, align 8
  %60 = getelementptr inbounds i32, ptr %59, i64 %7
  %61 = load i32, ptr %60, align 4
  %62 = getelementptr inbounds i8, ptr %0, i64 40
  %63 = load ptr, ptr %62, align 8
  %64 = getelementptr inbounds i32, ptr %63, i64 %10
  store i32 %61, ptr %64, align 4
  %65 = getelementptr inbounds i8, ptr %1, i64 88
  %66 = load ptr, ptr %65, align 8
  %67 = getelementptr inbounds i32, ptr %66, i64 %7
  %68 = load i32, ptr %67, align 4
  %69 = getelementptr inbounds i8, ptr %0, i64 88
  %70 = load ptr, ptr %69, align 8
  %71 = getelementptr inbounds i32, ptr %70, i64 %10
  store i32 %68, ptr %71, align 4
  %72 = getelementptr inbounds i8, ptr %1, i64 56
  %73 = load ptr, ptr %72, align 8
  %74 = getelementptr i32, ptr %73, i64 %7
  %75 = load i32, ptr %74, align 4
  %76 = getelementptr i8, ptr %74, i64 4
  %77 = load i32, ptr %76, align 4
  %78 = icmp slt i32 %75, %77
  br i1 %78, label %.lr.ph, label %._crit_edge

.lr.ph:                                           ; preds = %54
  %79 = getelementptr inbounds i8, ptr %1, i64 72
  %80 = getelementptr inbounds i8, ptr %0, i64 72
  %81 = getelementptr inbounds i8, ptr %0, i64 64
  %82 = getelementptr inbounds i8, ptr %1, i64 120
  %83 = getelementptr inbounds i8, ptr %0, i64 120
  %84 = getelementptr inbounds i8, ptr %0, i64 112
  %85 = sext i32 %75 to i64
  br label %86

86:                                               ; preds = %.lr.ph, %86
  %indvars.iv = phi i64 [ %85, %.lr.ph ], [ %indvars.iv.next, %86 ]
  %87 = load ptr, ptr %79, align 8
  %88 = getelementptr inbounds i32, ptr %87, i64 %indvars.iv
  %89 = load i32, ptr %88, align 4
  %90 = load ptr, ptr %80, align 8
  %91 = load i32, ptr %81, align 8
  %92 = add nsw i32 %91, 1
  store i32 %92, ptr %81, align 8
  %93 = sext i32 %91 to i64
  %94 = getelementptr inbounds i32, ptr %90, i64 %93
  store i32 %89, ptr %94, align 4
  %95 = load ptr, ptr %82, align 8
  %96 = getelementptr inbounds i32, ptr %95, i64 %indvars.iv
  %97 = load i32, ptr %96, align 4
  %98 = load ptr, ptr %83, align 8
  %99 = load i32, ptr %84, align 8
  %100 = add nsw i32 %99, 1
  store i32 %100, ptr %84, align 8
  %101 = sext i32 %99 to i64
  %102 = getelementptr inbounds i32, ptr %98, i64 %101
  store i32 %97, ptr %102, align 4
  %indvars.iv.next = add nsw i64 %indvars.iv, 1
  %103 = load ptr, ptr %72, align 8
  %104 = getelementptr i32, ptr %103, i64 %7
  %105 = getelementptr i8, ptr %104, i64 4
  %106 = load i32, ptr %105, align 4
  %107 = sext i32 %106 to i64
  %108 = icmp slt i64 %indvars.iv.next, %107
  br i1 %108, label %86, label %._crit_edge, !llvm.loop !5

._crit_edge:                                      ; preds = %86, %54
  %109 = getelementptr inbounds i8, ptr %0, i64 64
  %110 = load i32, ptr %109, align 8
  %111 = getelementptr inbounds i8, ptr %0, i64 56
  %112 = load ptr, ptr %111, align 8
  %113 = add nsw i32 %5, 1
  %114 = sext i32 %113 to i64
  %115 = getelementptr inbounds i32, ptr %112, i64 %114
  store i32 %110, ptr %115, align 4
  %116 = getelementptr inbounds i8, ptr %0, i64 96
  %117 = getelementptr inbounds i8, ptr %0, i64 104
  %118 = load ptr, ptr %117, align 8
  %119 = getelementptr inbounds i32, ptr %118, i64 %114
  store i32 %110, ptr %119, align 4
  %120 = load i32, ptr %4, align 8
  %121 = add nsw i32 %120, 1
  store i32 %121, ptr %4, align 8
  %122 = load i32, ptr %116, align 8
  %123 = add nsw i32 %122, 1
  store i32 %123, ptr %116, align 8
  ret void
}